; Function Attrs: mustprogress nounwind uwtable
define hidden void @_ZN15G1CollectionSet15add_eden_regionEP12G1HeapRegion(ptr noundef nonnull align 8 dereferenceable(160) %0, ptr noundef %1) local_unnamed_addr #1 align 2 {
  %3 = load ptr, ptr %0, align 8
  %4 = getelementptr inbounds i8, ptr %1, i64 48
  %5 = load i32, ptr %4, align 8
  %6 = zext i32 %5 to i64
  %7 = getelementptr inbounds i8, ptr %1, i64 128
  %8 = load volatile i64, ptr %7, align 8
  %.not.i.i = icmp eq i64 %8, 0
  %.sroa.0.0.insert.insert.i.i.i = select i1 %.not.i.i, i24 1, i24 65537
  %9 = getelementptr inbounds i8, ptr %3, i64 1448
  %10 = load ptr, ptr %9, align 8
  %11 = getelementptr inbounds %struct.G1HeapRegionAttr, ptr %10, i64 %6
  store i24 %.sroa.0.0.insert.insert.i.i.i, ptr %11, align 1
  %12 = getelementptr inbounds i8, ptr %0, i64 96
  %13 = load volatile i32, ptr %12, align 8
  %14 = add i32 %13, 1
  %15 = getelementptr inbounds i8, ptr %1, i64 104
  store i32 %14, ptr %15, align 8
  %16 = load i32, ptr %4, align 8
  %17 = getelementptr inbounds i8, ptr %0, i64 88
  %18 = load ptr, ptr %17, align 8
  %19 = load volatile i32, ptr %12, align 8
  %20 = zext i32 %19 to i64
  %21 = getelementptr inbounds i32, ptr %18, i64 %20
  store i32 %16, ptr %21, align 4
  tail call void asm sideeffect "", "~{memory},~{dirflag},~{fpsr},~{flags}"() #15, !srcloc !6
  %22 = load volatile i32, ptr %12, align 8
  %23 = add i32 %22, 1
  store volatile i32 %23, ptr %12, align 8
  ret void
}